; Function Attrs: mustprogress nounwind uwtable
define internal fastcc void @_ZZN3nix5Store12queryMissingERKSt6vectorINS_11DerivedPathESaIS2_EERSt3setINS_9StorePathESt4lessIS8_ESaIS8_EESD_SD_RmSE_EN8DrvStateD2Ev(ptr noundef nonnull align 8 dereferenceable(64) %0) unnamed_addr #6 align 2 personality ptr @__gxx_personality_v0 {
  %2 = getelementptr inbounds i8, ptr %0, i64 16
  %3 = getelementptr inbounds i8, ptr %0, i64 32
  %4 = load ptr, ptr %3, align 8
  invoke void @_ZNSt8_Rb_treeIN3nix9StorePathES1_St9_IdentityIS1_ESt4lessIS1_ESaIS1_EE8_M_eraseEPSt13_Rb_tree_nodeIS1_E(ptr noundef nonnull align 8 dereferenceable(48) %2, ptr noundef %4)
          to label %_ZNSt3setIN3nix9StorePathESt4lessIS1_ESaIS1_EED2Ev.exit unwind label %5

5:                                                ; preds = %1
  %6 = landingpad { ptr, i32 }
          catch ptr null
  %7 = extractvalue { ptr, i32 } %6, 0
  tail call void @__clang_call_terminate(ptr %7) #33
  unreachable

_ZNSt3setIN3nix9StorePathESt4lessIS1_ESaIS1_EED2Ev.exit: ; preds = %1
  ret void
}